; Function Attrs: mustprogress nounwind uwtable
define void @_ZN9grpc_core13MetadataQueryD2Ev(ptr noundef nonnull align 16 dereferenceable(176) %this) unnamed_addr #7 align 2 personality ptr @__gxx_personality_v0 {
entry:
  store ptr getelementptr inbounds ({ [5 x ptr] }, ptr @_ZTVN9grpc_core13MetadataQueryE, i64 0, i32 0, i64 2), ptr %this, align 16
  %response_ = getelementptr inbounds i8, ptr %this, i64 120
  invoke void @_Z26grpc_http_response_destroyP18grpc_http_response(ptr noundef nonnull %response_)
          to label %invoke.cont unwind label %terminate.lpad

invoke.cont:                                      ; preds = %entry
  %http_request_ = getelementptr inbounds i8, ptr %this, i64 112
  %0 = load ptr, ptr %http_request_, align 16
  %cmp.not.i = icmp eq ptr %0, null
  br i1 %cmp.not.i, label %_ZNSt10unique_ptrIN9grpc_core11HttpRequestENS0_16OrphanableDeleteEED2Ev.exit, label %if.then.i

if.then.i:                                        ; preds = %invoke.cont
  %vtable.i.i = load ptr, ptr %0, align 8
  %1 = load ptr, ptr %vtable.i.i, align 8
  invoke void %1(ptr noundef nonnull align 8 dereferenceable(5288) %0)
          to label %_ZNSt10unique_ptrIN9grpc_core11HttpRequestENS0_16OrphanableDeleteEED2Ev.exit unwind label %terminate.lpad.i

terminate.lpad.i:                                 ; preds = %if.then.i
  %2 = landingpad { ptr, i32 }
          catch ptr null
  %3 = extractvalue { ptr, i32 } %2, 0
  tail call void @__clang_call_terminate(ptr %3) #18
  unreachable

_ZNSt10unique_ptrIN9grpc_core11HttpRequestENS0_16OrphanableDeleteEED2Ev.exit: ; preds = %invoke.cont, %if.then.i
  store ptr null, ptr %http_request_, align 16
  %callback_ = getelementptr inbounds i8, ptr %this, i64 80
  %manager_.i.i.i = getelementptr inbounds i8, ptr %this, i64 96
  %4 = load ptr, ptr %manager_.i.i.i, align 16
  tail call void %4(i1 noundef zeroext true, ptr noundef nonnull %callback_, ptr noundef nonnull %callback_) #15
  %attribute_ = getelementptr inbounds i8, ptr %this, i64 48
  tail call void @_ZNSt7__cxx1112basic_stringIcSt11char_traitsIcESaIcEED1Ev(ptr noundef nonnull align 8 dereferenceable(32) %attribute_) #15
  ret void

terminate.lpad:                                   ; preds = %entry
  %5 = landingpad { ptr, i32 }
          catch ptr null
  %6 = extractvalue { ptr, i32 } %5, 0
  tail call void @__clang_call_terminate(ptr %6) #18
  unreachable
}